target datalayout = "e-m:e-p270:32:32-p271:32:32-p272:64:64-i64:64-i128:128-f80:128-n8:16:32:64-S128"
target triple = "x86_64-unknown-linux-gnu"

%"class.zmq::msg_t" = type { %union.anon.57 }
%union.anon.57 = type { %struct.anon }
%struct.anon = type { ptr, [34 x i8], i8, i8, i32, %"union.zmq::msg_t::group_t" }
%"union.zmq::msg_t::group_t" = type { %struct.anon.59 }
%struct.anon.59 = type { i8, ptr }

@stderr = external global ptr, align 8
@.str.2 = private unnamed_addr constant [105 x i8] c"generated/home/dtcxzyw/WorkSpace/Projects/compilers/llvm-opt-benchmark/bench/libzmq/libzmq/src/radio.cpp\00", align 1
@.str.3 = private unnamed_addr constant [6 x i8] c"\04JOIN\00", align 1
@.str.4 = private unnamed_addr constant [7 x i8] c"\05LEAVE\00", align 1
@.str.5 = private unnamed_addr constant [12 x i8] c"%s (%s:%d)\0A\00", align 1

; Function Attrs: mustprogress uwtable
define noundef i32 @_ZN3zmq15radio_session_t8push_msgEPNS_5msg_tE(ptr noundef nonnull align 8 dereferenceable(1696) %this, ptr noundef %msg_) unnamed_addr #0 align 2 {
entry:
  %retval = alloca i32, align 4
  %this.addr = alloca ptr, align 8
  %msg_.addr = alloca ptr, align 8
  %command_data = alloca ptr, align 8
  %data_size = alloca i64, align 8
  %group_length = alloca i32, align 4
  %group = alloca ptr, align 8
  %join_leave_msg = alloca %"class.zmq::msg_t", align 8
  %rc = alloca i32, align 4
  %errstr = alloca ptr, align 8
  %errstr36 = alloca ptr, align 8
  %errstr49 = alloca ptr, align 8
  store ptr %this, ptr %this.addr, align 8
  store ptr %msg_, ptr %msg_.addr, align 8
  %this1 = load ptr, ptr %this.addr, align 8
  %0 = load ptr, ptr %msg_.addr, align 8
  %call = call noundef zeroext i8 @_ZNK3zmq5msg_t5flagsEv(ptr noundef nonnull align 8 dereferenceable(64) %0)
  %conv = zext i8 %call to i32
  %and = and i32 %conv, 2
  %tobool = icmp ne i32 %and, 0
  br i1 %tobool, label %if.then, label %if.end57

if.then:                                          ; preds = %entry
  %1 = load ptr, ptr %msg_.addr, align 8
  %call2 = call noundef ptr @_ZN3zmq5msg_t4dataEv(ptr noundef nonnull align 8 dereferenceable(64) %1)
  store ptr %call2, ptr %command_data, align 8
  %2 = load ptr, ptr %msg_.addr, align 8
  %call3 = call noundef i64 @_ZNK3zmq5msg_t4sizeEv(ptr noundef nonnull align 8 dereferenceable(64) %2)
  store i64 %call3, ptr %data_size, align 8
  %3 = load i64, ptr %data_size, align 8
  %cmp = icmp uge i64 %3, 5
  br i1 %cmp, label %land.lhs.true, label %if.else

land.lhs.true:                                    ; preds = %if.then
  %4 = load ptr, ptr %command_data, align 8
  %call4 = call i32 @memcmp(ptr noundef %4, ptr noundef @.str.3, i64 noundef 5) #15
  %cmp5 = icmp eq i32 %call4, 0
  br i1 %cmp5, label %if.then6, label %if.else

if.then6:                                         ; preds = %land.lhs.true
  %5 = load i64, ptr %data_size, align 8
  %conv7 = trunc i64 %5 to i32
  %sub = sub nsw i32 %conv7, 5
  store i32 %sub, ptr %group_length, align 4
  %6 = load ptr, ptr %command_data, align 8
  %add.ptr = getelementptr inbounds i8, ptr %6, i64 5
  store ptr %add.ptr, ptr %group, align 8
  %call8 = call noundef i32 @_ZN3zmq5msg_t9init_joinEv(ptr noundef nonnull align 8 dereferenceable(64) %join_leave_msg)
  store i32 %call8, ptr %rc, align 4
  br label %if.end20

if.else:                                          ; preds = %land.lhs.true, %if.then
  %7 = load i64, ptr %data_size, align 8
  %cmp9 = icmp uge i64 %7, 6
  br i1 %cmp9, label %land.lhs.true10, label %if.else18

land.lhs.true10:                                  ; preds = %if.else
  %8 = load ptr, ptr %command_data, align 8
  %call11 = call i32 @memcmp(ptr noundef %8, ptr noundef @.str.4, i64 noundef 6) #15
  %cmp12 = icmp eq i32 %call11, 0
  br i1 %cmp12, label %if.then13, label %if.else18

if.then13:                                        ; preds = %land.lhs.true10
  %9 = load i64, ptr %data_size, align 8
  %conv14 = trunc i64 %9 to i32
  %sub15 = sub nsw i32 %conv14, 6
  store i32 %sub15, ptr %group_length, align 4
  %10 = load ptr, ptr %command_data, align 8
  %add.ptr16 = getelementptr inbounds i8, ptr %10, i64 6
  store ptr %add.ptr16, ptr %group, align 8
  %call17 = call noundef i32 @_ZN3zmq5msg_t10init_leaveEv(ptr noundef nonnull align 8 dereferenceable(64) %join_leave_msg)
  store i32 %call17, ptr %rc, align 4
  br label %if.end

if.else18:                                        ; preds = %land.lhs.true10, %if.else
  %11 = load ptr, ptr %msg_.addr, align 8
  %call19 = call noundef i32 @_ZN3zmq14session_base_t8push_msgEPNS_5msg_tE(ptr noundef nonnull align 8 dereferenceable(1624) %this1, ptr noundef %11)
  store i32 %call19, ptr %retval, align 4
  br label %return

if.end:                                           ; preds = %if.then13
  br label %if.end20

if.end20:                                         ; preds = %if.end, %if.then6
  br label %do.body

do.body:                                          ; preds = %if.end20
  %12 = load i32, ptr %rc, align 4
  %cmp21 = icmp eq i32 %12, 0
  %lnot = xor i1 %cmp21, true
  br i1 %lnot, label %if.then23, label %if.end28

if.then23:                                        ; preds = %do.body
  %call24 = call ptr @__errno_location() #16
  %13 = load i32, ptr %call24, align 4
  %call25 = call ptr @strerror(i32 noundef %13) #12
  store ptr %call25, ptr %errstr, align 8
  %14 = load ptr, ptr @stderr, align 8
  %15 = load ptr, ptr %errstr, align 8
  %call26 = call i32 (ptr, ptr, ...) @fprintf(ptr noundef %14, ptr noundef @.str.5, ptr noundef %15, ptr noundef @.str.2, i32 noundef 212)
  %16 = load ptr, ptr @stderr, align 8
  %call27 = call i32 @fflush(ptr noundef %16)
  %17 = load ptr, ptr %errstr, align 8
  call void @_ZN3zmq9zmq_abortEPKc(ptr noundef %17)
  br label %if.end28

if.end28:                                         ; preds = %if.then23, %do.body
  br label %do.end

do.end:                                           ; preds = %if.end28
  %18 = load ptr, ptr %group, align 8
  %19 = load i32, ptr %group_length, align 4
  %conv29 = sext i32 %19 to i64
  %call30 = call noundef i32 @_ZN3zmq5msg_t9set_groupEPKcm(ptr noundef nonnull align 8 dereferenceable(64) %join_leave_msg, ptr noundef %18, i64 noundef %conv29)
  store i32 %call30, ptr %rc, align 4
  br label %do.body31

do.body31:                                        ; preds = %do.end
  %20 = load i32, ptr %rc, align 4
  %cmp32 = icmp eq i32 %20, 0
  %lnot33 = xor i1 %cmp32, true
  br i1 %lnot33, label %if.then35, label %if.end41

if.then35:                                        ; preds = %do.body31
  %call37 = call ptr @__errno_location() #16
  %21 = load i32, ptr %call37, align 4
  %call38 = call ptr @strerror(i32 noundef %21) #12
  store ptr %call38, ptr %errstr36, align 8
  %22 = load ptr, ptr @stderr, align 8
  %23 = load ptr, ptr %errstr36, align 8
  %call39 = call i32 (ptr, ptr, ...) @fprintf(ptr noundef %22, ptr noundef @.str.5, ptr noundef %23, ptr noundef @.str.2, i32 noundef 216)
  %24 = load ptr, ptr @stderr, align 8
  %call40 = call i32 @fflush(ptr noundef %24)
  %25 = load ptr, ptr %errstr36, align 8
  call void @_ZN3zmq9zmq_abortEPKc(ptr noundef %25)
  br label %if.end41

if.end41:                                         ; preds = %if.then35, %do.body31
  br label %do.end42

do.end42:                                         ; preds = %if.end41
  %26 = load ptr, ptr %msg_.addr, align 8
  %call43 = call noundef i32 @_ZN3zmq5msg_t5closeEv(ptr noundef nonnull align 8 dereferenceable(64) %26)
  store i32 %call43, ptr %rc, align 4
  br label %do.body44

do.body44:                                        ; preds = %do.end42
  %27 = load i32, ptr %rc, align 4
  %cmp45 = icmp eq i32 %27, 0
  %lnot46 = xor i1 %cmp45, true
  br i1 %lnot46, label %if.then48, label %if.end54

if.then48:                                        ; preds = %do.body44
  %call50 = call ptr @__errno_location() #16
  %28 = load i32, ptr %call50, align 4
  %call51 = call ptr @strerror(i32 noundef %28) #12
  store ptr %call51, ptr %errstr49, align 8
  %29 = load ptr, ptr @stderr, align 8
  %30 = load ptr, ptr %errstr49, align 8
  %call52 = call i32 (ptr, ptr, ...) @fprintf(ptr noundef %29, ptr noundef @.str.5, ptr noundef %30, ptr noundef @.str.2, i32 noundef 220)
  %31 = load ptr, ptr @stderr, align 8
  %call53 = call i32 @fflush(ptr noundef %31)
  %32 = load ptr, ptr %errstr49, align 8
  call void @_ZN3zmq9zmq_abortEPKc(ptr noundef %32)
  br label %if.end54

if.end54:                                         ; preds = %if.then48, %do.body44
  br label %do.end55

do.end55:                                         ; preds = %if.end54
  %33 = load ptr, ptr %msg_.addr, align 8
  call void @llvm.memcpy.p0.p0.i64(ptr align 8 %33, ptr align 8 %join_leave_msg, i64 64, i1 false)
  %34 = load ptr, ptr %msg_.addr, align 8
  %call56 = call noundef i32 @_ZN3zmq14session_base_t8push_msgEPNS_5msg_tE(ptr noundef nonnull align 8 dereferenceable(1624) %this1, ptr noundef %34)
  store i32 %call56, ptr %retval, align 4
  br label %return

if.end57:                                         ; preds = %entry
  %35 = load ptr, ptr %msg_.addr, align 8
  %call58 = call noundef i32 @_ZN3zmq14session_base_t8push_msgEPNS_5msg_tE(ptr noundef nonnull align 8 dereferenceable(1624) %this1, ptr noundef %35)
  store i32 %call58, ptr %retval, align 4
  br label %return

return:                                           ; preds = %if.end57, %do.end55, %if.else18
  %36 = load i32, ptr %retval, align 4
  ret i32 %36
}