; Function Attrs: mustprogress uwtable
define noundef i32 @_ZN3zmq15radio_session_t8push_msgEPNS_5msg_tE(ptr noundef nonnull align 8 dereferenceable(1696) %this, ptr noundef nonnull %msg_) unnamed_addr #0 align 2 {
entry:
  %join_leave_msg = alloca %"class.zmq::msg_t", align 8
  %call = tail call noundef zeroext i8 @_ZNK3zmq5msg_t5flagsEv(ptr noundef nonnull align 8 dereferenceable(64) %msg_)
  %0 = and i8 %call, 2
  %tobool.not = icmp eq i8 %0, 0
  br i1 %tobool.not, label %if.end57, label %if.then

if.then:                                          ; preds = %entry
  %call2 = tail call noundef ptr @_ZN3zmq5msg_t4dataEv(ptr noundef nonnull align 8 dereferenceable(64) %msg_)
  %call3 = tail call noundef i64 @_ZNK3zmq5msg_t4sizeEv(ptr noundef nonnull align 8 dereferenceable(64) %msg_)
  %cmp = icmp ugt i64 %call3, 4
  br i1 %cmp, label %land.lhs.true, label %if.else18

land.lhs.true:                                    ; preds = %if.then
  %bcmp = tail call i32 @bcmp(ptr noundef nonnull dereferenceable(5) %call2, ptr noundef nonnull dereferenceable(5) @.str.3, i64 5)
  %cmp5 = icmp eq i32 %bcmp, 0
  br i1 %cmp5, label %if.then6, label %if.else

if.then6:                                         ; preds = %land.lhs.true
  %sub = add i64 %call3, -5
  %add.ptr = getelementptr inbounds i8, ptr %call2, i64 5
  %call8 = call noundef i32 @_ZN3zmq5msg_t9init_joinEv(ptr noundef nonnull align 8 dereferenceable(64) %join_leave_msg)
  br label %do.body

if.else:                                          ; preds = %land.lhs.true
  %cmp9.not = icmp eq i64 %call3, 5
  br i1 %cmp9.not, label %if.else18, label %land.lhs.true10

land.lhs.true10:                                  ; preds = %if.else
  %bcmp19 = tail call i32 @bcmp(ptr noundef nonnull dereferenceable(6) %call2, ptr noundef nonnull dereferenceable(6) @.str.4, i64 6)
  %cmp12 = icmp eq i32 %bcmp19, 0
  br i1 %cmp12, label %if.then13, label %if.else18

if.then13:                                        ; preds = %land.lhs.true10
  %sub15 = add i64 %call3, -6
  %add.ptr16 = getelementptr inbounds i8, ptr %call2, i64 6
  %call17 = call noundef i32 @_ZN3zmq5msg_t10init_leaveEv(ptr noundef nonnull align 8 dereferenceable(64) %join_leave_msg)
  br label %do.body

if.else18:                                        ; preds = %if.then, %land.lhs.true10, %if.else
  %call19 = tail call noundef i32 @_ZN3zmq14session_base_t8push_msgEPNS_5msg_tE(ptr noundef nonnull align 8 dereferenceable(1624) %this, ptr noundef nonnull %msg_)
  br label %return

do.body:                                          ; preds = %if.then6, %if.then13
  %rc.0 = phi i32 [ %call8, %if.then6 ], [ %call17, %if.then13 ]
  %group.0 = phi ptr [ %add.ptr, %if.then6 ], [ %add.ptr16, %if.then13 ]
  %group_length.0 = phi i64 [ %sub, %if.then6 ], [ %sub15, %if.then13 ]
  %cmp21.not = icmp eq i32 %rc.0, 0
  br i1 %cmp21.not, label %do.end, label %if.then23

if.then23:                                        ; preds = %do.body
  %call24 = tail call ptr @__errno_location() #27
  %1 = load i32, ptr %call24, align 4
  %call25 = call ptr @strerror(i32 noundef %1) #21
  %2 = load ptr, ptr @stderr, align 8
  %call26 = call i32 (ptr, ptr, ...) @fprintf(ptr noundef %2, ptr noundef nonnull @.str.5, ptr noundef %call25, ptr noundef nonnull @.str.2, i32 noundef 212) #23
  %3 = load ptr, ptr @stderr, align 8
  %call27 = call i32 @fflush(ptr noundef %3)
  call void @_ZN3zmq9zmq_abortEPKc(ptr noundef %call25)
  br label %do.end

do.end:                                           ; preds = %do.body, %if.then23
  %sext = shl i64 %group_length.0, 32
  %conv29 = ashr exact i64 %sext, 32
  %call30 = call noundef i32 @_ZN3zmq5msg_t9set_groupEPKcm(ptr noundef nonnull align 8 dereferenceable(64) %join_leave_msg, ptr noundef nonnull %group.0, i64 noundef %conv29)
  %cmp32.not = icmp eq i32 %call30, 0
  br i1 %cmp32.not, label %do.end42, label %if.then35

if.then35:                                        ; preds = %do.end
  %call37 = tail call ptr @__errno_location() #27
  %4 = load i32, ptr %call37, align 4
  %call38 = call ptr @strerror(i32 noundef %4) #21
  %5 = load ptr, ptr @stderr, align 8
  %call39 = call i32 (ptr, ptr, ...) @fprintf(ptr noundef %5, ptr noundef nonnull @.str.5, ptr noundef %call38, ptr noundef nonnull @.str.2, i32 noundef 216) #23
  %6 = load ptr, ptr @stderr, align 8
  %call40 = call i32 @fflush(ptr noundef %6)
  call void @_ZN3zmq9zmq_abortEPKc(ptr noundef %call38)
  br label %do.end42

do.end42:                                         ; preds = %do.end, %if.then35
  %call43 = call noundef i32 @_ZN3zmq5msg_t5closeEv(ptr noundef nonnull align 8 dereferenceable(64) %msg_)
  %cmp45.not = icmp eq i32 %call43, 0
  br i1 %cmp45.not, label %do.end55, label %if.then48

if.then48:                                        ; preds = %do.end42
  %call50 = tail call ptr @__errno_location() #27
  %7 = load i32, ptr %call50, align 4
  %call51 = call ptr @strerror(i32 noundef %7) #21
  %8 = load ptr, ptr @stderr, align 8
  %call52 = call i32 (ptr, ptr, ...) @fprintf(ptr noundef %8, ptr noundef nonnull @.str.5, ptr noundef %call51, ptr noundef nonnull @.str.2, i32 noundef 220) #23
  %9 = load ptr, ptr @stderr, align 8
  %call53 = call i32 @fflush(ptr noundef %9)
  call void @_ZN3zmq9zmq_abortEPKc(ptr noundef %call51)
  br label %do.end55

do.end55:                                         ; preds = %do.end42, %if.then48
  call void @llvm.memcpy.p0.p0.i64(ptr noundef nonnull align 8 dereferenceable(64) %msg_, ptr noundef nonnull align 8 dereferenceable(64) %join_leave_msg, i64 64, i1 false)
  %call56 = call noundef i32 @_ZN3zmq14session_base_t8push_msgEPNS_5msg_tE(ptr noundef nonnull align 8 dereferenceable(1624) %this, ptr noundef nonnull %msg_)
  br label %return

if.end57:                                         ; preds = %entry
  %call58 = tail call noundef i32 @_ZN3zmq14session_base_t8push_msgEPNS_5msg_tE(ptr noundef nonnull align 8 dereferenceable(1624) %this, ptr noundef nonnull %msg_)
  br label %return

return:                                           ; preds = %if.end57, %do.end55, %if.else18
  %retval.0 = phi i32 [ %call56, %do.end55 ], [ %call19, %if.else18 ], [ %call58, %if.end57 ]
  ret i32 %retval.0
}